target datalayout = "e-m:e-p270:32:32-p271:32:32-p272:64:64-i64:64-i128:128-f80:128-n8:16:32:64-S128"
target triple = "x86_64-pc-linux-gnu"

; Function Attrs: nounwind uwtable
define internal ptr @_on_key(ptr noundef %0, ptr noundef %1) #0 {
  %3 = alloca ptr, align 8
  %4 = alloca ptr, align 8
  %5 = alloca ptr, align 8
  %6 = alloca ptr, align 8
  %7 = alloca i32, align 4
  %8 = alloca ptr, align 8
  store ptr %0, ptr %4, align 8
  store ptr %1, ptr %5, align 8
  call void @llvm.lifetime.start.p0(i64 8, ptr %6) #3
  %9 = load ptr, ptr %4, align 8
  %10 = load ptr, ptr %5, align 8
  %11 = call ptr @data_key_get(ptr noundef %9, ptr noundef %10)
  store ptr %11, ptr %6, align 8
  %12 = load ptr, ptr %6, align 8
  %13 = icmp ne ptr %12, null
  br i1 %13, label %18, label %14

14:                                               ; preds = %2
  %15 = load ptr, ptr %4, align 8
  %16 = load ptr, ptr %5, align 8
  %17 = call ptr @data_key_set(ptr noundef %15, ptr noundef %16)
  store ptr %17, ptr %3, align 8
  store i32 1, ptr %7, align 4
  br label %44

18:                                               ; preds = %2
  %19 = load ptr, ptr %6, align 8
  %20 = call i32 @data_get_type(ptr noundef %19)
  %21 = icmp ne i32 %20, 2
  br i1 %21, label %22, label %41

22:                                               ; preds = %18
  call void @llvm.lifetime.start.p0(i64 8, ptr %8) #3
  %23 = call ptr @data_new()
  store ptr %23, ptr %8, align 8
  %24 = load ptr, ptr %8, align 8
  %25 = load ptr, ptr %6, align 8
  %26 = call ptr @data_move(ptr noundef %24, ptr noundef %25)
  %27 = load ptr, ptr %6, align 8
  %28 = call ptr @data_set_list(ptr noundef %27)
  %29 = load ptr, ptr %6, align 8
  %30 = call ptr @data_list_append(ptr noundef %29)
  %31 = load ptr, ptr %8, align 8
  %32 = call ptr @data_move(ptr noundef %30, ptr noundef %31)
  br label %33

33:                                               ; preds = %22
  %34 = load ptr, ptr %8, align 8
  %35 = icmp ne ptr %34, null
  br i1 %35, label %36, label %38

36:                                               ; preds = %33
  %37 = load ptr, ptr %8, align 8
  call void @data_free(ptr noundef %37)
  br label %38

38:                                               ; preds = %36, %33
  store ptr null, ptr %8, align 8
  br label %39

39:                                               ; preds = %38
  br label %40

40:                                               ; preds = %39
  call void @llvm.lifetime.end.p0(i64 8, ptr %8) #3
  br label %41

41:                                               ; preds = %40, %18
  %42 = load ptr, ptr %6, align 8
  %43 = call ptr @data_list_append(ptr noundef %42)
  store ptr %43, ptr %3, align 8
  store i32 1, ptr %7, align 4
  br label %44

44:                                               ; preds = %41, %14
  call void @llvm.lifetime.end.p0(i64 8, ptr %6) #3
  %45 = load ptr, ptr %3, align 8
  ret ptr %45
}