; Function Attrs: nounwind uwtable
define internal fastcc ptr @_on_key(ptr noundef %0, ptr noundef nonnull %1) unnamed_addr #1 {
  %3 = tail call ptr @data_key_get(ptr noundef %0, ptr noundef nonnull %1) #4
  %.not = icmp eq ptr %3, null
  br i1 %.not, label %4, label %6

4:                                                ; preds = %2
  %5 = tail call ptr @data_key_set(ptr noundef %0, ptr noundef nonnull %1) #4
  br label %17

6:                                                ; preds = %2
  %7 = tail call i32 @data_get_type(ptr noundef nonnull %3) #4
  %.not17 = icmp eq i32 %7, 2
  br i1 %.not17, label %15, label %8

8:                                                ; preds = %6
  %9 = tail call ptr @data_new() #4
  %10 = tail call ptr @data_move(ptr noundef %9, ptr noundef nonnull %3) #4
  %11 = tail call ptr @data_set_list(ptr noundef nonnull %3) #4
  %12 = tail call ptr @data_list_append(ptr noundef nonnull %3) #4
  %13 = tail call ptr @data_move(ptr noundef %12, ptr noundef %9) #4
  %.not18 = icmp eq ptr %9, null
  br i1 %.not18, label %15, label %14

14:                                               ; preds = %8
  tail call void @data_free(ptr noundef nonnull %9) #4
  br label %15

15:                                               ; preds = %8, %14, %6
  %16 = tail call ptr @data_list_append(ptr noundef nonnull %3) #4
  br label %17

17:                                               ; preds = %15, %4
  %.0 = phi ptr [ %16, %15 ], [ %5, %4 ]
  ret ptr %.0
}